target datalayout = "e-m:e-p270:32:32-p271:32:32-p272:64:64-i64:64-i128:128-f80:128-n8:16:32:64-S128"
target triple = "x86_64-pc-linux-gnu"

%struct.LOCKTAG = type { i32, i32, i32, i16, i8, i8 }
%struct.LOCALLOCKTAG = type { %struct.LOCKTAG, i32 }
%struct.LOCALLOCK = type { %struct.LOCALLOCKTAG, i32, ptr, ptr, i64, i32, i32, ptr, i8, i8 }
%struct.LOCALLOCKOWNER = type { ptr, i64 }
%struct.HASH_SEQ_STATUS = type { ptr, i32, ptr, i8, i32 }

@LockMethodLocalHash = internal global ptr null, align 8
@CurrentResourceOwner = external global ptr, align 8

; Function Attrs: nounwind uwtable
define internal void @LockReassignOwner(ptr noundef %0, ptr noundef %1) #0 {
  %3 = alloca ptr, align 8
  %4 = alloca ptr, align 8
  %5 = alloca ptr, align 8
  %6 = alloca i32, align 4
  %7 = alloca i32, align 4
  %8 = alloca i32, align 4
  %9 = alloca i32, align 4
  store ptr %0, ptr %3, align 8
  store ptr %1, ptr %4, align 8
  call void @llvm.lifetime.start.p0(i64 8, ptr %5) #9
  call void @llvm.lifetime.start.p0(i64 4, ptr %6) #9
  call void @llvm.lifetime.start.p0(i64 4, ptr %7) #9
  store i32 -1, ptr %7, align 4
  call void @llvm.lifetime.start.p0(i64 4, ptr %8) #9
  store i32 -1, ptr %8, align 4
  %10 = load ptr, ptr %3, align 8
  %11 = getelementptr inbounds nuw %struct.LOCALLOCK, ptr %10, i32 0, i32 7
  %12 = load ptr, ptr %11, align 8
  store ptr %12, ptr %5, align 8
  %13 = load ptr, ptr %3, align 8
  %14 = getelementptr inbounds nuw %struct.LOCALLOCK, ptr %13, i32 0, i32 5
  %15 = load i32, ptr %14, align 8
  %16 = sub i32 %15, 1
  store i32 %16, ptr %6, align 4
  br label %17

17:                                               ; preds = %44, %2
  %18 = load i32, ptr %6, align 4
  %19 = icmp sge i32 %18, 0
  br i1 %19, label %20, label %47

20:                                               ; preds = %17
  %21 = load ptr, ptr %5, align 8
  %22 = load i32, ptr %6, align 4
  %23 = sext i32 %22 to i64
  %24 = getelementptr inbounds %struct.LOCALLOCKOWNER, ptr %21, i64 %23
  %25 = getelementptr inbounds nuw %struct.LOCALLOCKOWNER, ptr %24, i32 0, i32 0
  %26 = load ptr, ptr %25, align 8
  %27 = load ptr, ptr @CurrentResourceOwner, align 8
  %28 = icmp eq ptr %26, %27
  br i1 %28, label %29, label %31

29:                                               ; preds = %20
  %30 = load i32, ptr %6, align 4
  store i32 %30, ptr %7, align 4
  br label %43

31:                                               ; preds = %20
  %32 = load ptr, ptr %5, align 8
  %33 = load i32, ptr %6, align 4
  %34 = sext i32 %33 to i64
  %35 = getelementptr inbounds %struct.LOCALLOCKOWNER, ptr %32, i64 %34
  %36 = getelementptr inbounds nuw %struct.LOCALLOCKOWNER, ptr %35, i32 0, i32 0
  %37 = load ptr, ptr %36, align 8
  %38 = load ptr, ptr %4, align 8
  %39 = icmp eq ptr %37, %38
  br i1 %39, label %40, label %42

40:                                               ; preds = %31
  %41 = load i32, ptr %6, align 4
  store i32 %41, ptr %8, align 4
  br label %42

42:                                               ; preds = %40, %31
  br label %43

43:                                               ; preds = %42, %29
  br label %44

44:                                               ; preds = %43
  %45 = load i32, ptr %6, align 4
  %46 = add i32 %45, -1
  store i32 %46, ptr %6, align 4
  br label %17, !llvm.loop !42

47:                                               ; preds = %17
  %48 = load i32, ptr %7, align 4
  %49 = icmp slt i32 %48, 0
  br i1 %49, label %50, label %51

50:                                               ; preds = %47
  store i32 1, ptr %9, align 4
  br label %101

51:                                               ; preds = %47
  %52 = load i32, ptr %8, align 4
  %53 = icmp slt i32 %52, 0
  br i1 %53, label %54, label %63

54:                                               ; preds = %51
  %55 = load ptr, ptr %4, align 8
  %56 = load ptr, ptr %5, align 8
  %57 = load i32, ptr %7, align 4
  %58 = sext i32 %57 to i64
  %59 = getelementptr inbounds %struct.LOCALLOCKOWNER, ptr %56, i64 %58
  %60 = getelementptr inbounds nuw %struct.LOCALLOCKOWNER, ptr %59, i32 0, i32 0
  store ptr %55, ptr %60, align 8
  %61 = load ptr, ptr %4, align 8
  %62 = load ptr, ptr %3, align 8
  call void @ResourceOwnerRememberLock(ptr noundef %61, ptr noundef %62)
  br label %98

63:                                               ; preds = %51
  %64 = load ptr, ptr %5, align 8
  %65 = load i32, ptr %7, align 4
  %66 = sext i32 %65 to i64
  %67 = getelementptr inbounds %struct.LOCALLOCKOWNER, ptr %64, i64 %66
  %68 = getelementptr inbounds nuw %struct.LOCALLOCKOWNER, ptr %67, i32 0, i32 1
  %69 = load i64, ptr %68, align 8
  %70 = load ptr, ptr %5, align 8
  %71 = load i32, ptr %8, align 4
  %72 = sext i32 %71 to i64
  %73 = getelementptr inbounds %struct.LOCALLOCKOWNER, ptr %70, i64 %72
  %74 = getelementptr inbounds nuw %struct.LOCALLOCKOWNER, ptr %73, i32 0, i32 1
  %75 = load i64, ptr %74, align 8
  %76 = add i64 %75, %69
  store i64 %76, ptr %74, align 8
  %77 = load ptr, ptr %3, align 8
  %78 = getelementptr inbounds nuw %struct.LOCALLOCK, ptr %77, i32 0, i32 5
  %79 = load i32, ptr %78, align 8
  %80 = add i32 %79, -1
  store i32 %80, ptr %78, align 8
  %81 = load i32, ptr %7, align 4
  %82 = load ptr, ptr %3, align 8
  %83 = getelementptr inbounds nuw %struct.LOCALLOCK, ptr %82, i32 0, i32 5
  %84 = load i32, ptr %83, align 8
  %85 = icmp slt i32 %81, %84
  br i1 %85, label %86, label %97

86:                                               ; preds = %63
  %87 = load ptr, ptr %5, align 8
  %88 = load i32, ptr %7, align 4
  %89 = sext i32 %88 to i64
  %90 = getelementptr inbounds %struct.LOCALLOCKOWNER, ptr %87, i64 %89
  %91 = load ptr, ptr %5, align 8
  %92 = load ptr, ptr %3, align 8
  %93 = getelementptr inbounds nuw %struct.LOCALLOCK, ptr %92, i32 0, i32 5
  %94 = load i32, ptr %93, align 8
  %95 = sext i32 %94 to i64
  %96 = getelementptr inbounds %struct.LOCALLOCKOWNER, ptr %91, i64 %95
  call void @llvm.memcpy.p0.p0.i64(ptr align 8 %90, ptr align 8 %96, i64 16, i1 false)
  br label %97

97:                                               ; preds = %86, %63
  br label %98

98:                                               ; preds = %97, %54
  %99 = load ptr, ptr @CurrentResourceOwner, align 8
  %100 = load ptr, ptr %3, align 8
  call void @ResourceOwnerForgetLock(ptr noundef %99, ptr noundef %100)
  store i32 0, ptr %9, align 4
  br label %101

101:                                              ; preds = %98, %50
  call void @llvm.lifetime.end.p0(i64 4, ptr %8) #9
  call void @llvm.lifetime.end.p0(i64 4, ptr %7) #9
  call void @llvm.lifetime.end.p0(i64 4, ptr %6) #9
  call void @llvm.lifetime.end.p0(i64 8, ptr %5) #9
  %102 = load i32, ptr %9, align 4
  switch i32 %102, label %104 [
    i32 0, label %103
    i32 1, label %103
  ]

103:                                              ; preds = %101, %101
  ret void

104:                                              ; preds = %101
  unreachable
}

; Function Attrs: nounwind uwtable
define dso_local void @LockReassignCurrentOwner(ptr noundef %0, i32 noundef %1) #0 {
  %3 = alloca ptr, align 8
  %4 = alloca i32, align 4
  %5 = alloca ptr, align 8
  %6 = alloca %struct.HASH_SEQ_STATUS, align 8
  %7 = alloca ptr, align 8
  %8 = alloca i32, align 4
  store ptr %0, ptr %3, align 8
  store i32 %1, ptr %4, align 4
  call void @llvm.lifetime.start.p0(i64 8, ptr %5) #9
  %9 = load ptr, ptr @CurrentResourceOwner, align 8
  %10 = call ptr @ResourceOwnerGetParent(ptr noundef %9)
  store ptr %10, ptr %5, align 8
  %11 = load ptr, ptr %3, align 8
  %12 = icmp eq ptr %11, null
  br i1 %12, label %13, label %22

13:                                               ; preds = %2
  call void @llvm.lifetime.start.p0(i64 32, ptr %6) #9
  call void @llvm.lifetime.start.p0(i64 8, ptr %7) #9
  %14 = load ptr, ptr @LockMethodLocalHash, align 8
  call void @hash_seq_init(ptr noundef %6, ptr noundef %14)
  br label %15

15:                                               ; preds = %18, %13
  %16 = call ptr @hash_seq_search(ptr noundef %6)
  store ptr %16, ptr %7, align 8
  %17 = icmp ne ptr %16, null
  br i1 %17, label %18, label %21

18:                                               ; preds = %15
  %19 = load ptr, ptr %7, align 8
  %20 = load ptr, ptr %5, align 8
  call void @LockReassignOwner(ptr noundef %19, ptr noundef %20)
  br label %15, !llvm.loop !40

21:                                               ; preds = %15
  call void @llvm.lifetime.end.p0(i64 8, ptr %7) #9
  call void @llvm.lifetime.end.p0(i64 32, ptr %6) #9
  br label %39

22:                                               ; preds = %2
  call void @llvm.lifetime.start.p0(i64 4, ptr %8) #9
  %23 = load i32, ptr %4, align 4
  %24 = sub i32 %23, 1
  store i32 %24, ptr %8, align 4
  br label %25

25:                                               ; preds = %35, %22
  %26 = load i32, ptr %8, align 4
  %27 = icmp sge i32 %26, 0
  br i1 %27, label %28, label %38

28:                                               ; preds = %25
  %29 = load ptr, ptr %3, align 8
  %30 = load i32, ptr %8, align 4
  %31 = sext i32 %30 to i64
  %32 = getelementptr inbounds ptr, ptr %29, i64 %31
  %33 = load ptr, ptr %32, align 8
  %34 = load ptr, ptr %5, align 8
  call void @LockReassignOwner(ptr noundef %33, ptr noundef %34)
  br label %35

35:                                               ; preds = %28
  %36 = load i32, ptr %8, align 4
  %37 = add i32 %36, -1
  store i32 %37, ptr %8, align 4
  br label %25, !llvm.loop !41

38:                                               ; preds = %25
  call void @llvm.lifetime.end.p0(i64 4, ptr %8) #9
  br label %39

39:                                               ; preds = %38, %21
  call void @llvm.lifetime.end.p0(i64 8, ptr %5) #9
  ret void
}