; Function Attrs: nounwind uwtable
define dso_local void @LockReassignCurrentOwner(ptr noundef readonly captures(address_is_null) %0, i32 noundef %1) local_unnamed_addr #0 {
  %3 = alloca %struct.HASH_SEQ_STATUS, align 8
  %4 = load ptr, ptr @CurrentResourceOwner, align 8
  %5 = tail call ptr @ResourceOwnerGetParent(ptr noundef %4) #17
  %6 = icmp eq ptr %0, null
  br i1 %6, label %9, label %.preheader

.preheader:                                       ; preds = %2
  %.022 = add i32 %1, -1
  %7 = icmp sgt i32 %.022, -1
  br i1 %7, label %.lr.ph.preheader, label %.loopexit

.lr.ph.preheader:                                 ; preds = %.preheader
  %8 = zext nneg i32 %.022 to i64
  br label %.lr.ph

9:                                                ; preds = %2
  call void @llvm.lifetime.start.p0(i64 32, ptr nonnull %3) #17
  %10 = load ptr, ptr @LockMethodLocalHash, align 8
  call void @hash_seq_init(ptr noundef nonnull %3, ptr noundef %10) #17
  %11 = call ptr @hash_seq_search(ptr noundef nonnull %3) #17
  %.not24 = icmp eq ptr %11, null
  br i1 %.not24, label %._crit_edge, label %.lr.ph25

.lr.ph25:                                         ; preds = %9, %LockReassignOwner.exit
  %12 = phi ptr [ %47, %LockReassignOwner.exit ], [ %11, %9 ]
  %13 = getelementptr inbounds nuw i8, ptr %12, i64 56
  %14 = load ptr, ptr %13, align 8
  %15 = getelementptr inbounds nuw i8, ptr %12, i64 48
  %16 = load i32, ptr %15, align 8
  %.03134.i = add i32 %16, -1
  %17 = icmp sgt i32 %.03134.i, -1
  br i1 %17, label %.lr.ph.i, label %LockReassignOwner.exit

.lr.ph.i:                                         ; preds = %.lr.ph25
  %18 = load ptr, ptr @CurrentResourceOwner, align 8
  %19 = zext nneg i32 %.03134.i to i64
  br label %20

20:                                               ; preds = %20, %.lr.ph.i
  %indvars.iv.i = phi i64 [ %19, %.lr.ph.i ], [ %indvars.iv.next.i, %20 ]
  %.036.i = phi i32 [ -1, %.lr.ph.i ], [ %.1.i, %20 ]
  %.02935.i = phi i32 [ -1, %.lr.ph.i ], [ %.130.i, %20 ]
  %21 = getelementptr inbounds nuw %struct.LOCALLOCKOWNER, ptr %14, i64 %indvars.iv.i
  %22 = load ptr, ptr %21, align 8
  %23 = icmp eq ptr %22, %18
  %24 = icmp eq ptr %22, %5
  %25 = trunc nuw nsw i64 %indvars.iv.i to i32
  %spec.select.i = select i1 %24, i32 %25, i32 %.036.i
  %.130.i = select i1 %23, i32 %25, i32 %.02935.i
  %.1.i = select i1 %23, i32 %.036.i, i32 %spec.select.i
  %indvars.iv.next.i = add nsw i64 %indvars.iv.i, -1
  %.not.i = icmp eq i64 %indvars.iv.i, 0
  br i1 %.not.i, label %._crit_edge.i, label %20, !llvm.loop !34

._crit_edge.i:                                    ; preds = %20
  %26 = icmp slt i32 %.130.i, 0
  br i1 %26, label %LockReassignOwner.exit, label %27

27:                                               ; preds = %._crit_edge.i
  %28 = icmp slt i32 %.1.i, 0
  %29 = zext nneg i32 %.130.i to i64
  %30 = getelementptr inbounds nuw %struct.LOCALLOCKOWNER, ptr %14, i64 %29
  br i1 %28, label %31, label %32

31:                                               ; preds = %27
  store ptr %5, ptr %30, align 8
  call void @ResourceOwnerRememberLock(ptr noundef %5, ptr noundef nonnull %12) #17
  br label %45

32:                                               ; preds = %27
  %33 = getelementptr inbounds nuw i8, ptr %30, i64 8
  %34 = load i64, ptr %33, align 8
  %35 = zext nneg i32 %.1.i to i64
  %36 = getelementptr inbounds nuw %struct.LOCALLOCKOWNER, ptr %14, i64 %35, i32 1
  %37 = load i64, ptr %36, align 8
  %38 = add i64 %37, %34
  store i64 %38, ptr %36, align 8
  %39 = load i32, ptr %15, align 8
  %40 = add i32 %39, -1
  store i32 %40, ptr %15, align 8
  %41 = icmp slt i32 %.130.i, %40
  br i1 %41, label %42, label %45

42:                                               ; preds = %32
  %43 = zext nneg i32 %40 to i64
  %44 = getelementptr inbounds nuw %struct.LOCALLOCKOWNER, ptr %14, i64 %43
  call void @llvm.memcpy.p0.p0.i64(ptr noundef nonnull align 8 dereferenceable(16) %30, ptr noundef nonnull align 8 dereferenceable(16) %44, i64 16, i1 false)
  br label %45

45:                                               ; preds = %42, %32, %31
  %46 = load ptr, ptr @CurrentResourceOwner, align 8
  call void @ResourceOwnerForgetLock(ptr noundef %46, ptr noundef nonnull %12) #17
  br label %LockReassignOwner.exit

LockReassignOwner.exit:                           ; preds = %.lr.ph25, %._crit_edge.i, %45
  %47 = call ptr @hash_seq_search(ptr noundef nonnull %3) #17
  %.not = icmp eq ptr %47, null
  br i1 %.not, label %._crit_edge, label %.lr.ph25, !llvm.loop !35

._crit_edge:                                      ; preds = %LockReassignOwner.exit, %9
  call void @llvm.lifetime.end.p0(i64 32, ptr nonnull %3) #17
  br label %.loopexit

.lr.ph:                                           ; preds = %.lr.ph.preheader, %LockReassignOwner.exit21
  %indvars.iv = phi i64 [ %8, %.lr.ph.preheader ], [ %indvars.iv.next, %LockReassignOwner.exit21 ]
  %48 = getelementptr inbounds nuw ptr, ptr %0, i64 %indvars.iv
  %49 = load ptr, ptr %48, align 8
  %50 = getelementptr inbounds nuw i8, ptr %49, i64 56
  %51 = load ptr, ptr %50, align 8
  %52 = getelementptr inbounds nuw i8, ptr %49, i64 48
  %53 = load i32, ptr %52, align 8
  %.03134.i10 = add i32 %53, -1
  %54 = icmp sgt i32 %.03134.i10, -1
  br i1 %54, label %.lr.ph.i11, label %LockReassignOwner.exit21

.lr.ph.i11:                                       ; preds = %.lr.ph
  %55 = load ptr, ptr @CurrentResourceOwner, align 8
  %56 = zext nneg i32 %.03134.i10 to i64
  br label %57

57:                                               ; preds = %57, %.lr.ph.i11
  %indvars.iv.i12 = phi i64 [ %56, %.lr.ph.i11 ], [ %indvars.iv.next.i18, %57 ]
  %.036.i13 = phi i32 [ -1, %.lr.ph.i11 ], [ %.1.i17, %57 ]
  %.02935.i14 = phi i32 [ -1, %.lr.ph.i11 ], [ %.130.i16, %57 ]
  %58 = getelementptr inbounds nuw %struct.LOCALLOCKOWNER, ptr %51, i64 %indvars.iv.i12
  %59 = load ptr, ptr %58, align 8
  %60 = icmp eq ptr %59, %55
  %61 = icmp eq ptr %59, %5
  %62 = trunc nuw nsw i64 %indvars.iv.i12 to i32
  %spec.select.i15 = select i1 %61, i32 %62, i32 %.036.i13
  %.130.i16 = select i1 %60, i32 %62, i32 %.02935.i14
  %.1.i17 = select i1 %60, i32 %.036.i13, i32 %spec.select.i15
  %indvars.iv.next.i18 = add nsw i64 %indvars.iv.i12, -1
  %.not.i19 = icmp eq i64 %indvars.iv.i12, 0
  br i1 %.not.i19, label %._crit_edge.i20, label %57, !llvm.loop !34

._crit_edge.i20:                                  ; preds = %57
  %63 = icmp slt i32 %.130.i16, 0
  br i1 %63, label %LockReassignOwner.exit21, label %64

64:                                               ; preds = %._crit_edge.i20
  %65 = icmp slt i32 %.1.i17, 0
  %66 = zext nneg i32 %.130.i16 to i64
  %67 = getelementptr inbounds nuw %struct.LOCALLOCKOWNER, ptr %51, i64 %66
  br i1 %65, label %68, label %69

68:                                               ; preds = %64
  store ptr %5, ptr %67, align 8
  tail call void @ResourceOwnerRememberLock(ptr noundef %5, ptr noundef %49) #17
  br label %82

69:                                               ; preds = %64
  %70 = getelementptr inbounds nuw i8, ptr %67, i64 8
  %71 = load i64, ptr %70, align 8
  %72 = zext nneg i32 %.1.i17 to i64
  %73 = getelementptr inbounds nuw %struct.LOCALLOCKOWNER, ptr %51, i64 %72, i32 1
  %74 = load i64, ptr %73, align 8
  %75 = add i64 %74, %71
  store i64 %75, ptr %73, align 8
  %76 = load i32, ptr %52, align 8
  %77 = add i32 %76, -1
  store i32 %77, ptr %52, align 8
  %78 = icmp slt i32 %.130.i16, %77
  br i1 %78, label %79, label %82

79:                                               ; preds = %69
  %80 = zext nneg i32 %77 to i64
  %81 = getelementptr inbounds nuw %struct.LOCALLOCKOWNER, ptr %51, i64 %80
  tail call void @llvm.memcpy.p0.p0.i64(ptr noundef nonnull align 8 dereferenceable(16) %67, ptr noundef nonnull align 8 dereferenceable(16) %81, i64 16, i1 false)
  br label %82

82:                                               ; preds = %79, %69, %68
  %83 = load ptr, ptr @CurrentResourceOwner, align 8
  tail call void @ResourceOwnerForgetLock(ptr noundef %83, ptr noundef %49) #17
  br label %LockReassignOwner.exit21

LockReassignOwner.exit21:                         ; preds = %.lr.ph, %._crit_edge.i20, %82
  %indvars.iv.next = add nsw i64 %indvars.iv, -1
  %84 = icmp sgt i64 %indvars.iv, 0
  br i1 %84, label %.lr.ph, label %.loopexit, !llvm.loop !36

.loopexit:                                        ; preds = %LockReassignOwner.exit21, %.preheader, %._crit_edge
  ret void
}